; Function Attrs: mustprogress uwtable
define void @_ZN7rocksdb14ThreadPoolImpl11PthreadCallEPKci(ptr noundef %0, i32 noundef %1) local_unnamed_addr #3 align 2 personality ptr @__gxx_personality_v0 {
  %3 = alloca %"class.std::__cxx11::basic_string", align 8
  %.not = icmp eq i32 %1, 0
  br i1 %.not, label %8, label %4

4:                                                ; preds = %2
  %5 = load ptr, ptr @stderr, align 8, !tbaa !14
  call void @llvm.lifetime.start.p0(i64 32, ptr nonnull %3) #26
  call void @_ZN7rocksdb8errnoStrB5cxx11Ei(ptr dead_on_unwind nonnull writable sret(%"class.std::__cxx11::basic_string") align 8 %3, i32 noundef %1)
  %6 = load ptr, ptr %3, align 8, !tbaa !4
  %7 = call i32 (ptr, ptr, ...) @fprintf(ptr noundef %5, ptr noundef nonnull @.str.38, ptr noundef %0, ptr noundef %6) #27
  call void @_ZNSt7__cxx1112basic_stringIcSt11char_traitsIcESaIcEED2Ev(ptr noundef nonnull align 8 dereferenceable(32) %3) #26
  call void @llvm.lifetime.end.p0(i64 32, ptr nonnull %3) #26
  call void @abort() #28
  unreachable

8:                                                ; preds = %2
  ret void
}